target datalayout = "e-m:e-p270:32:32-p271:32:32-p272:64:64-i64:64-i128:128-f80:128-n8:16:32:64-S128"
target triple = "x86_64-pc-linux-gnu"

%struct.ossl_param_st = type { ptr, i32, ptr, i64, i64 }
%struct.ssl_connection_st = type { %struct.ssl_st, ptr, i32, ptr, ptr, ptr, i32, ptr, i32, i32, i32, i32, %struct.OSSL_TIME, %struct.OSSL_TIME, %struct.ossl_statem_st, i32, ptr, ptr, i64, i64, i64, %struct.ossl_quic_tls_callbacks_st, ptr, ptr, %struct.anon, ptr, ptr, ptr, i32, ptr, %struct.ssl_dane_st, ptr, ptr, ptr, ptr, i32, [64 x i8], [64 x i8], [64 x i8], [64 x i8], [64 x i8], [64 x i8], [64 x i8], [64 x i8], [64 x i8], [64 x i8], [64 x i8], [64 x i8], ptr, [64 x i8], i64, i32, i64, [32 x i8], ptr, ptr, ptr, i64, ptr, [32 x i8], i64, i32, ptr, ptr, i32, i32, ptr, ptr, ptr, ptr, ptr, i64, ptr, ptr, i64, i32, i32, i32, i64, i32, i32, i64, i64, i64, %struct.anon.1, ptr, i32, ptr, ptr, ptr, i32, ptr, ptr, ptr, i32, i32, i32, i32, ptr, i64, i32, ptr, %struct.srp_ctx_st, ptr, %struct.record_layer_st, ptr, ptr, ptr, ptr, i64, i32, i32, i32, i64, i64, i64, ptr, ptr, ptr, ptr, ptr, i64, ptr, i64, ptr, i64 }
%struct.ssl_st = type { i32, ptr, ptr, ptr, %struct.CRYPTO_REF_COUNT, ptr, %struct.crypto_ex_data_st }
%struct.CRYPTO_REF_COUNT = type { i32 }
%struct.crypto_ex_data_st = type { ptr, ptr }
%struct.OSSL_TIME = type { i64 }
%struct.ossl_statem_st = type { i32, i32, i32, i32, i32, i32, i32, i32, i32, i32, i32, i32, i32, ptr, ptr, ptr, i8 }
%struct.ossl_quic_tls_callbacks_st = type { ptr, ptr, ptr, ptr, ptr, ptr }
%struct.anon = type { i64, [32 x i8], [32 x i8], ptr, ptr, i32, i32, i32, i32, [2 x i8], i32, i32, i32, i32, %struct.anon.0, [64 x i8], i64, [64 x i8], i64, i32, i32, ptr, i64, ptr, i64, i32, i8, i8, i16, ptr, i16 }
%struct.anon.0 = type { [128 x i8], i64, [128 x i8], i64, i64, i32, ptr, ptr, [4 x ptr], [4 x i16], i64, i32, ptr, i64, ptr, i64, ptr, ptr, ptr, i32, i64, ptr, i32, ptr, i64, ptr, i64, ptr, i64, ptr, ptr, ptr, ptr, i64, i64, ptr, ptr, i32, i32, i32, i32 }
%struct.ssl_dane_st = type { ptr, ptr, ptr, ptr, ptr, i32, i32, i32, i64 }
%struct.anon.1 = type { [29 x i8], ptr, ptr, ptr, i32, ptr, i16, i32, %struct.anon.2, i32, i32, i64, ptr, i64, ptr, i64, ptr, i64, ptr, i64, ptr, i64, ptr, ptr, ptr, ptr, ptr, ptr, ptr, i64, ptr, i64, i32, i32, i32, i32, ptr, i64, i32, i8, i32, [4 x i32], i32, i8, i8, i8, i8 }
%struct.anon.2 = type { ptr, ptr, ptr, i64 }
%struct.srp_ctx_st = type { ptr, ptr, ptr, ptr, ptr, ptr, ptr, ptr, ptr, ptr, ptr, ptr, ptr, ptr, i32, i64 }
%struct.record_layer_st = type { ptr, ptr, ptr, ptr, ptr, ptr, ptr, ptr, i64, i32, i64, [4 x i8], i64, i64, i8, ptr, i32, ptr, ptr, ptr, i64, i64, i64, i64, [32 x %struct.tls_record_st] }
%struct.tls_record_st = type { ptr, i32, i8, ptr, ptr, i64, i64, i16, [8 x i8] }
%struct.ssl_ctx_st = type { ptr, ptr, ptr, ptr, ptr, ptr, ptr, i64, ptr, ptr, i32, %struct.OSSL_TIME, ptr, ptr, ptr, %struct.anon.3, %struct.CRYPTO_REF_COUNT, ptr, ptr, ptr, ptr, ptr, ptr, ptr, ptr, ptr, %struct.crypto_ex_data_st, ptr, ptr, ptr, ptr, ptr, ptr, ptr, i64, i32, i32, i32, i64, ptr, ptr, i32, ptr, ptr, i32, i64, [32 x i8], ptr, ptr, ptr, i32, ptr, ptr, ptr, i64, i64, i64, i64, ptr, ptr, ptr, ptr, ptr, %struct.anon.4, ptr, ptr, ptr, ptr, %struct.srp_ctx_st, %struct.dane_ctx_st, ptr, ptr, ptr, ptr, i32, i32, ptr, ptr, i64, i64, ptr, ptr, ptr, i64, ptr, ptr, i32, ptr, ptr, ptr, [14 x i32], [24 x ptr], [14 x ptr], [14 x i64], i64, ptr, ptr, ptr, i64, i64, ptr, i64, i64, i32, i32, i32, i32, ptr, i64, ptr, i64, i64, ptr, ptr }
%struct.anon.3 = type { i32, i32, i32, i32, i32, i32, i32, i32, i32, i32, i32 }
%struct.anon.4 = type { ptr, ptr, [16 x i8], ptr, ptr, ptr, ptr, ptr, i32, i8, i64, ptr, i64, ptr, i64, ptr, i64, ptr, ptr, i64, ptr, ptr, ptr, i64, ptr, ptr, ptr, ptr, [32 x i8] }
%struct.dane_ctx_st = type { ptr, ptr, i8, i64 }

@.str = private unnamed_addr constant [10 x i8] c"TLS13-KDF\00", align 1
@.str.1 = private unnamed_addr constant [27 x i8] c"../openssl/ssl/tls13_enc.c\00", align 1
@.str.2 = private unnamed_addr constant [5 x i8] c"mode\00", align 1
@.str.3 = private unnamed_addr constant [7 x i8] c"digest\00", align 1
@.str.4 = private unnamed_addr constant [4 x i8] c"key\00", align 1
@.str.5 = private unnamed_addr constant [7 x i8] c"prefix\00", align 1
@label_prefix = internal constant [7 x i8] c"tls13 \00", align 1
@.str.6 = private unnamed_addr constant [6 x i8] c"label\00", align 1
@tls13_generate_secret.derived_secret_label = internal constant [8 x i8] c"derived\00", align 1
@__func__.tls13_generate_secret = private unnamed_addr constant [22 x i8] c"tls13_generate_secret\00", align 1
@.str.8 = private unnamed_addr constant [5 x i8] c"salt\00", align 1

; Function Attrs: nounwind uwtable
define dso_local i32 @tls13_generate_secret(ptr noundef %0, ptr noundef %1, ptr noundef %2, ptr noundef %3, i64 noundef %4, ptr noundef %5) #0 {
  %7 = alloca i32, align 4
  %8 = alloca ptr, align 8
  %9 = alloca ptr, align 8
  %10 = alloca ptr, align 8
  %11 = alloca ptr, align 8
  %12 = alloca i64, align 8
  %13 = alloca ptr, align 8
  %14 = alloca i64, align 8
  %15 = alloca i32, align 4
  %16 = alloca i32, align 4
  %17 = alloca ptr, align 8
  %18 = alloca ptr, align 8
  %19 = alloca [7 x %struct.ossl_param_st], align 16
  %20 = alloca ptr, align 8
  %21 = alloca i32, align 4
  %22 = alloca ptr, align 8
  %23 = alloca ptr, align 8
  %24 = alloca i32, align 4
  %25 = alloca %struct.ossl_param_st, align 8
  %26 = alloca %struct.ossl_param_st, align 8
  %27 = alloca %struct.ossl_param_st, align 8
  %28 = alloca %struct.ossl_param_st, align 8
  %29 = alloca %struct.ossl_param_st, align 8
  %30 = alloca %struct.ossl_param_st, align 8
  %31 = alloca %struct.ossl_param_st, align 8
  store ptr %0, ptr %8, align 8, !tbaa !25
  store ptr %1, ptr %9, align 8, !tbaa !11
  store ptr %2, ptr %10, align 8, !tbaa !9
  store ptr %3, ptr %11, align 8, !tbaa !9
  store i64 %4, ptr %12, align 8, !tbaa !13
  store ptr %5, ptr %13, align 8, !tbaa !9
  call void @llvm.lifetime.start.p0(i64 8, ptr %14) #5
  call void @llvm.lifetime.start.p0(i64 4, ptr %15) #5
  call void @llvm.lifetime.start.p0(i64 4, ptr %16) #5
  call void @llvm.lifetime.start.p0(i64 8, ptr %17) #5
  call void @llvm.lifetime.start.p0(i64 8, ptr %18) #5
  call void @llvm.lifetime.start.p0(i64 280, ptr %19) #5
  call void @llvm.lifetime.start.p0(i64 8, ptr %20) #5
  %32 = getelementptr inbounds [7 x %struct.ossl_param_st], ptr %19, i64 0, i64 0
  store ptr %32, ptr %20, align 8, !tbaa !19
  call void @llvm.lifetime.start.p0(i64 4, ptr %21) #5
  store i32 1, ptr %21, align 4, !tbaa !15
  call void @llvm.lifetime.start.p0(i64 8, ptr %22) #5
  %33 = load ptr, ptr %9, align 8, !tbaa !11
  %34 = call ptr @EVP_MD_get0_name(ptr noundef %33)
  store ptr %34, ptr %22, align 8, !tbaa !9
  call void @llvm.lifetime.start.p0(i64 8, ptr %23) #5
  %35 = load ptr, ptr %8, align 8, !tbaa !25
  %36 = getelementptr inbounds nuw %struct.ssl_connection_st, ptr %35, i32 0, i32 0
  %37 = getelementptr inbounds nuw %struct.ssl_st, ptr %36, i32 0, i32 1
  %38 = load ptr, ptr %37, align 8, !tbaa !27
  store ptr %38, ptr %23, align 8, !tbaa !84
  %39 = load ptr, ptr %23, align 8, !tbaa !84
  %40 = getelementptr inbounds nuw %struct.ssl_ctx_st, ptr %39, i32 0, i32 0
  %41 = load ptr, ptr %40, align 8, !tbaa !85
  %42 = load ptr, ptr %23, align 8, !tbaa !84
  %43 = getelementptr inbounds nuw %struct.ssl_ctx_st, ptr %42, i32 0, i32 89
  %44 = load ptr, ptr %43, align 8, !tbaa !100
  %45 = call ptr @EVP_KDF_fetch(ptr noundef %41, ptr noundef @.str, ptr noundef %44)
  store ptr %45, ptr %17, align 8, !tbaa !17
  %46 = load ptr, ptr %17, align 8, !tbaa !17
  %47 = call ptr @EVP_KDF_CTX_new(ptr noundef %46)
  store ptr %47, ptr %18, align 8, !tbaa !21
  %48 = load ptr, ptr %17, align 8, !tbaa !17
  call void @EVP_KDF_free(ptr noundef %48)
  %49 = load ptr, ptr %18, align 8, !tbaa !21
  %50 = icmp eq ptr %49, null
  br i1 %50, label %51, label %53

51:                                               ; preds = %6
  call void @ERR_new()
  call void @ERR_set_debug(ptr noundef @.str.1, i32 noundef 186, ptr noundef @__func__.tls13_generate_secret)
  %52 = load ptr, ptr %8, align 8, !tbaa !25
  call void (ptr, i32, i32, ptr, ...) @ossl_statem_fatal(ptr noundef %52, i32 noundef 80, i32 noundef 786691, ptr noundef null)
  store i32 0, ptr %7, align 4
  store i32 1, ptr %24, align 4
  br label %115

53:                                               ; preds = %6
  %54 = load ptr, ptr %9, align 8, !tbaa !11
  %55 = call i32 @EVP_MD_get_size(ptr noundef %54)
  store i32 %55, ptr %15, align 4, !tbaa !15
  %56 = load i32, ptr %15, align 4, !tbaa !15
  %57 = icmp sgt i32 %56, 0
  %58 = zext i1 %57 to i32
  %59 = icmp ne i32 %58, 0
  %60 = xor i1 %59, true
  %61 = xor i1 %60, true
  %62 = zext i1 %61 to i32
  %63 = sext i32 %62 to i64
  %64 = call i64 @llvm.expect.i64(i64 %63, i64 1)
  %65 = icmp ne i64 %64, 0
  br i1 %65, label %69, label %66

66:                                               ; preds = %53
  call void @ERR_new()
  call void @ERR_set_debug(ptr noundef @.str.1, i32 noundef 193, ptr noundef @__func__.tls13_generate_secret)
  %67 = load ptr, ptr %8, align 8, !tbaa !25
  call void (ptr, i32, i32, ptr, ...) @ossl_statem_fatal(ptr noundef %67, i32 noundef 80, i32 noundef 786691, ptr noundef null)
  %68 = load ptr, ptr %18, align 8, !tbaa !21
  call void @EVP_KDF_CTX_free(ptr noundef %68)
  store i32 0, ptr %7, align 4
  store i32 1, ptr %24, align 4
  br label %115

69:                                               ; preds = %53
  %70 = load i32, ptr %15, align 4, !tbaa !15
  %71 = sext i32 %70 to i64
  store i64 %71, ptr %14, align 8, !tbaa !13
  %72 = load ptr, ptr %20, align 8, !tbaa !19
  %73 = getelementptr inbounds nuw %struct.ossl_param_st, ptr %72, i32 1
  store ptr %73, ptr %20, align 8, !tbaa !19
  call void @llvm.lifetime.start.p0(i64 40, ptr %25) #5
  call void @OSSL_PARAM_construct_int(ptr dead_on_unwind writable sret(%struct.ossl_param_st) align 8 %25, ptr noundef @.str.2, ptr noundef %21)
  call void @llvm.memcpy.p0.p0.i64(ptr align 8 %72, ptr align 8 %25, i64 40, i1 false), !tbaa.struct !23
  call void @llvm.lifetime.end.p0(i64 40, ptr %25) #5
  %74 = load ptr, ptr %20, align 8, !tbaa !19
  %75 = getelementptr inbounds nuw %struct.ossl_param_st, ptr %74, i32 1
  store ptr %75, ptr %20, align 8, !tbaa !19
  call void @llvm.lifetime.start.p0(i64 40, ptr %26) #5
  %76 = load ptr, ptr %22, align 8, !tbaa !9
  call void @OSSL_PARAM_construct_utf8_string(ptr dead_on_unwind writable sret(%struct.ossl_param_st) align 8 %26, ptr noundef @.str.3, ptr noundef %76, i64 noundef 0)
  call void @llvm.memcpy.p0.p0.i64(ptr align 8 %74, ptr align 8 %26, i64 40, i1 false), !tbaa.struct !23
  call void @llvm.lifetime.end.p0(i64 40, ptr %26) #5
  %77 = load ptr, ptr %11, align 8, !tbaa !9
  %78 = icmp ne ptr %77, null
  br i1 %78, label %79, label %84

79:                                               ; preds = %69
  %80 = load ptr, ptr %20, align 8, !tbaa !19
  %81 = getelementptr inbounds nuw %struct.ossl_param_st, ptr %80, i32 1
  store ptr %81, ptr %20, align 8, !tbaa !19
  call void @llvm.lifetime.start.p0(i64 40, ptr %27) #5
  %82 = load ptr, ptr %11, align 8, !tbaa !9
  %83 = load i64, ptr %12, align 8, !tbaa !13
  call void @OSSL_PARAM_construct_octet_string(ptr dead_on_unwind writable sret(%struct.ossl_param_st) align 8 %27, ptr noundef @.str.4, ptr noundef %82, i64 noundef %83)
  call void @llvm.memcpy.p0.p0.i64(ptr align 8 %80, ptr align 8 %27, i64 40, i1 false), !tbaa.struct !23
  call void @llvm.lifetime.end.p0(i64 40, ptr %27) #5
  br label %84

84:                                               ; preds = %79, %69
  %85 = load ptr, ptr %10, align 8, !tbaa !9
  %86 = icmp ne ptr %85, null
  br i1 %86, label %87, label %92

87:                                               ; preds = %84
  %88 = load ptr, ptr %20, align 8, !tbaa !19
  %89 = getelementptr inbounds nuw %struct.ossl_param_st, ptr %88, i32 1
  store ptr %89, ptr %20, align 8, !tbaa !19
  call void @llvm.lifetime.start.p0(i64 40, ptr %28) #5
  %90 = load ptr, ptr %10, align 8, !tbaa !9
  %91 = load i64, ptr %14, align 8, !tbaa !13
  call void @OSSL_PARAM_construct_octet_string(ptr dead_on_unwind writable sret(%struct.ossl_param_st) align 8 %28, ptr noundef @.str.8, ptr noundef %90, i64 noundef %91)
  call void @llvm.memcpy.p0.p0.i64(ptr align 8 %88, ptr align 8 %28, i64 40, i1 false), !tbaa.struct !23
  call void @llvm.lifetime.end.p0(i64 40, ptr %28) #5
  br label %92

92:                                               ; preds = %87, %84
  %93 = load ptr, ptr %20, align 8, !tbaa !19
  %94 = getelementptr inbounds nuw %struct.ossl_param_st, ptr %93, i32 1
  store ptr %94, ptr %20, align 8, !tbaa !19
  call void @llvm.lifetime.start.p0(i64 40, ptr %29) #5
  call void @OSSL_PARAM_construct_octet_string(ptr dead_on_unwind writable sret(%struct.ossl_param_st) align 8 %29, ptr noundef @.str.5, ptr noundef @label_prefix, i64 noundef 6)
  call void @llvm.memcpy.p0.p0.i64(ptr align 8 %93, ptr align 8 %29, i64 40, i1 false), !tbaa.struct !23
  call void @llvm.lifetime.end.p0(i64 40, ptr %29) #5
  %95 = load ptr, ptr %20, align 8, !tbaa !19
  %96 = getelementptr inbounds nuw %struct.ossl_param_st, ptr %95, i32 1
  store ptr %96, ptr %20, align 8, !tbaa !19
  call void @llvm.lifetime.start.p0(i64 40, ptr %30) #5
  call void @OSSL_PARAM_construct_octet_string(ptr dead_on_unwind writable sret(%struct.ossl_param_st) align 8 %30, ptr noundef @.str.6, ptr noundef @tls13_generate_secret.derived_secret_label, i64 noundef 7)
  call void @llvm.memcpy.p0.p0.i64(ptr align 8 %95, ptr align 8 %30, i64 40, i1 false), !tbaa.struct !23
  call void @llvm.lifetime.end.p0(i64 40, ptr %30) #5
  %97 = load ptr, ptr %20, align 8, !tbaa !19
  %98 = getelementptr inbounds nuw %struct.ossl_param_st, ptr %97, i32 1
  store ptr %98, ptr %20, align 8, !tbaa !19
  call void @llvm.lifetime.start.p0(i64 40, ptr %31) #5
  call void @OSSL_PARAM_construct_end(ptr dead_on_unwind writable sret(%struct.ossl_param_st) align 8 %31)
  call void @llvm.memcpy.p0.p0.i64(ptr align 8 %97, ptr align 8 %31, i64 40, i1 false), !tbaa.struct !23
  call void @llvm.lifetime.end.p0(i64 40, ptr %31) #5
  %99 = load ptr, ptr %18, align 8, !tbaa !21
  %100 = load ptr, ptr %13, align 8, !tbaa !9
  %101 = load i64, ptr %14, align 8, !tbaa !13
  %102 = getelementptr inbounds [7 x %struct.ossl_param_st], ptr %19, i64 0, i64 0
  %103 = call i32 @EVP_KDF_derive(ptr noundef %99, ptr noundef %100, i64 noundef %101, ptr noundef %102)
  %104 = icmp sle i32 %103, 0
  %105 = zext i1 %104 to i32
  store i32 %105, ptr %16, align 4, !tbaa !15
  %106 = load i32, ptr %16, align 4, !tbaa !15
  %107 = icmp ne i32 %106, 0
  br i1 %107, label %108, label %110

108:                                              ; preds = %92
  call void @ERR_new()
  call void @ERR_set_debug(ptr noundef @.str.1, i32 noundef 220, ptr noundef @__func__.tls13_generate_secret)
  %109 = load ptr, ptr %8, align 8, !tbaa !25
  call void (ptr, i32, i32, ptr, ...) @ossl_statem_fatal(ptr noundef %109, i32 noundef 80, i32 noundef 786691, ptr noundef null)
  br label %110

110:                                              ; preds = %108, %92
  %111 = load ptr, ptr %18, align 8, !tbaa !21
  call void @EVP_KDF_CTX_free(ptr noundef %111)
  %112 = load i32, ptr %16, align 4, !tbaa !15
  %113 = icmp eq i32 %112, 0
  %114 = zext i1 %113 to i32
  store i32 %114, ptr %7, align 4
  store i32 1, ptr %24, align 4
  br label %115

115:                                              ; preds = %110, %66, %51
  call void @llvm.lifetime.end.p0(i64 8, ptr %23) #5
  call void @llvm.lifetime.end.p0(i64 8, ptr %22) #5
  call void @llvm.lifetime.end.p0(i64 4, ptr %21) #5
  call void @llvm.lifetime.end.p0(i64 8, ptr %20) #5
  call void @llvm.lifetime.end.p0(i64 280, ptr %19) #5
  call void @llvm.lifetime.end.p0(i64 8, ptr %18) #5
  call void @llvm.lifetime.end.p0(i64 8, ptr %17) #5
  call void @llvm.lifetime.end.p0(i64 4, ptr %16) #5
  call void @llvm.lifetime.end.p0(i64 4, ptr %15) #5
  call void @llvm.lifetime.end.p0(i64 8, ptr %14) #5
  %116 = load i32, ptr %7, align 4
  ret i32 %116
}