; Function Attrs: nounwind uwtable
define dso_local range(i32 0, 2) i32 @tls13_generate_secret(ptr noundef %0, ptr noundef %1, ptr noundef %2, ptr noundef %3, i64 noundef %4, ptr noundef %5) local_unnamed_addr #0 {
  %7 = alloca [7 x %struct.ossl_param_st], align 16
  %8 = alloca i32, align 4
  %9 = alloca %struct.ossl_param_st, align 8
  %10 = alloca %struct.ossl_param_st, align 8
  %11 = alloca %struct.ossl_param_st, align 8
  %12 = alloca %struct.ossl_param_st, align 8
  %13 = alloca %struct.ossl_param_st, align 8
  %14 = alloca %struct.ossl_param_st, align 8
  call void @llvm.lifetime.start.p0(i64 280, ptr nonnull %7) #4
  call void @llvm.lifetime.start.p0(i64 4, ptr nonnull %8) #4
  store i32 1, ptr %8, align 4, !tbaa !4
  %15 = tail call ptr @EVP_MD_get0_name(ptr noundef %1) #4
  %16 = getelementptr inbounds nuw i8, ptr %0, i64 8
  %17 = load ptr, ptr %16, align 8, !tbaa !15
  %18 = load ptr, ptr %17, align 8, !tbaa !75
  %19 = getelementptr inbounds nuw i8, ptr %17, i64 1152
  %20 = load ptr, ptr %19, align 8, !tbaa !90
  %21 = tail call ptr @EVP_KDF_fetch(ptr noundef %18, ptr noundef nonnull @.str, ptr noundef %20) #4
  %22 = tail call ptr @EVP_KDF_CTX_new(ptr noundef %21) #4
  tail call void @EVP_KDF_free(ptr noundef %21) #4
  %23 = icmp eq ptr %22, null
  br i1 %23, label %24, label %25

24:                                               ; preds = %6
  tail call void @ERR_new() #4
  tail call void @ERR_set_debug(ptr noundef nonnull @.str.1, i32 noundef 186, ptr noundef nonnull @__func__.tls13_generate_secret) #4
  tail call void (ptr, i32, i32, ptr, ...) @ossl_statem_fatal(ptr noundef nonnull %0, i32 noundef 80, i32 noundef 786691, ptr noundef null) #4
  br label %46

25:                                               ; preds = %6
  %26 = tail call i32 @EVP_MD_get_size(ptr noundef %1) #4
  %27 = icmp sgt i32 %26, 0
  br i1 %27, label %29, label %28, !prof !91

28:                                               ; preds = %25
  tail call void @ERR_new() #4
  tail call void @ERR_set_debug(ptr noundef nonnull @.str.1, i32 noundef 193, ptr noundef nonnull @__func__.tls13_generate_secret) #4
  tail call void (ptr, i32, i32, ptr, ...) @ossl_statem_fatal(ptr noundef nonnull %0, i32 noundef 80, i32 noundef 786691, ptr noundef null) #4
  tail call void @EVP_KDF_CTX_free(ptr noundef nonnull %22) #4
  br label %46

29:                                               ; preds = %25
  %30 = zext nneg i32 %26 to i64
  %31 = getelementptr inbounds nuw i8, ptr %7, i64 40
  call void @OSSL_PARAM_construct_int(ptr dead_on_unwind nonnull writable sret(%struct.ossl_param_st) align 8 %7, ptr noundef nonnull @.str.2, ptr noundef nonnull %8) #4
  %32 = getelementptr inbounds nuw i8, ptr %7, i64 80
  call void @llvm.lifetime.start.p0(i64 40, ptr nonnull %9) #4
  call void @OSSL_PARAM_construct_utf8_string(ptr dead_on_unwind nonnull writable sret(%struct.ossl_param_st) align 8 %9, ptr noundef nonnull @.str.3, ptr noundef %15, i64 noundef 0) #4
  call void @llvm.memcpy.p0.p0.i64(ptr noundef nonnull align 8 dereferenceable(40) %31, ptr noundef nonnull align 8 dereferenceable(40) %9, i64 40, i1 false), !tbaa.struct !8
  call void @llvm.lifetime.end.p0(i64 40, ptr nonnull %9) #4
  %.not = icmp eq ptr %3, null
  br i1 %.not, label %35, label %33

33:                                               ; preds = %29
  %34 = getelementptr inbounds nuw i8, ptr %7, i64 120
  call void @llvm.lifetime.start.p0(i64 40, ptr nonnull %10) #4
  call void @OSSL_PARAM_construct_octet_string(ptr dead_on_unwind nonnull writable sret(%struct.ossl_param_st) align 8 %10, ptr noundef nonnull @.str.4, ptr noundef nonnull %3, i64 noundef %4) #4
  call void @llvm.memcpy.p0.p0.i64(ptr noundef nonnull align 16 dereferenceable(40) %32, ptr noundef nonnull align 8 dereferenceable(40) %10, i64 40, i1 false), !tbaa.struct !8
  call void @llvm.lifetime.end.p0(i64 40, ptr nonnull %10) #4
  br label %35

35:                                               ; preds = %33, %29
  %.034 = phi ptr [ %34, %33 ], [ %32, %29 ]
  %.not39 = icmp eq ptr %2, null
  br i1 %.not39, label %38, label %36

36:                                               ; preds = %35
  %37 = getelementptr inbounds nuw i8, ptr %.034, i64 40
  call void @llvm.lifetime.start.p0(i64 40, ptr nonnull %11) #4
  call void @OSSL_PARAM_construct_octet_string(ptr dead_on_unwind nonnull writable sret(%struct.ossl_param_st) align 8 %11, ptr noundef nonnull @.str.8, ptr noundef nonnull %2, i64 noundef %30) #4
  call void @llvm.memcpy.p0.p0.i64(ptr noundef nonnull align 8 dereferenceable(40) %.034, ptr noundef nonnull align 8 dereferenceable(40) %11, i64 40, i1 false), !tbaa.struct !8
  call void @llvm.lifetime.end.p0(i64 40, ptr nonnull %11) #4
  br label %38

38:                                               ; preds = %36, %35
  %.1 = phi ptr [ %37, %36 ], [ %.034, %35 ]
  %39 = getelementptr inbounds nuw i8, ptr %.1, i64 40
  call void @llvm.lifetime.start.p0(i64 40, ptr nonnull %12) #4
  call void @OSSL_PARAM_construct_octet_string(ptr dead_on_unwind nonnull writable sret(%struct.ossl_param_st) align 8 %12, ptr noundef nonnull @.str.5, ptr noundef nonnull @label_prefix, i64 noundef 6) #4
  call void @llvm.memcpy.p0.p0.i64(ptr noundef nonnull align 8 dereferenceable(40) %.1, ptr noundef nonnull align 8 dereferenceable(40) %12, i64 40, i1 false), !tbaa.struct !8
  call void @llvm.lifetime.end.p0(i64 40, ptr nonnull %12) #4
  %40 = getelementptr inbounds nuw i8, ptr %.1, i64 80
  call void @llvm.lifetime.start.p0(i64 40, ptr nonnull %13) #4
  call void @OSSL_PARAM_construct_octet_string(ptr dead_on_unwind nonnull writable sret(%struct.ossl_param_st) align 8 %13, ptr noundef nonnull @.str.6, ptr noundef nonnull @tls13_generate_secret.derived_secret_label, i64 noundef 7) #4
  call void @llvm.memcpy.p0.p0.i64(ptr noundef nonnull align 8 dereferenceable(40) %39, ptr noundef nonnull align 8 dereferenceable(40) %13, i64 40, i1 false), !tbaa.struct !8
  call void @llvm.lifetime.end.p0(i64 40, ptr nonnull %13) #4
  call void @llvm.lifetime.start.p0(i64 40, ptr nonnull %14) #4
  call void @OSSL_PARAM_construct_end(ptr dead_on_unwind nonnull writable sret(%struct.ossl_param_st) align 8 %14) #4
  call void @llvm.memcpy.p0.p0.i64(ptr noundef nonnull align 8 dereferenceable(40) %40, ptr noundef nonnull align 8 dereferenceable(40) %14, i64 40, i1 false), !tbaa.struct !8
  call void @llvm.lifetime.end.p0(i64 40, ptr nonnull %14) #4
  %41 = call i32 @EVP_KDF_derive(ptr noundef nonnull %22, ptr noundef %5, i64 noundef %30, ptr noundef nonnull %7) #4
  %42 = icmp sgt i32 %41, 0
  br i1 %42, label %44, label %43

43:                                               ; preds = %38
  call void @ERR_new() #4
  call void @ERR_set_debug(ptr noundef nonnull @.str.1, i32 noundef 220, ptr noundef nonnull @__func__.tls13_generate_secret) #4
  call void (ptr, i32, i32, ptr, ...) @ossl_statem_fatal(ptr noundef nonnull %0, i32 noundef 80, i32 noundef 786691, ptr noundef null) #4
  br label %44

44:                                               ; preds = %43, %38
  call void @EVP_KDF_CTX_free(ptr noundef nonnull %22) #4
  %45 = zext i1 %42 to i32
  br label %46

46:                                               ; preds = %44, %28, %24
  %.0 = phi i32 [ 0, %24 ], [ %45, %44 ], [ 0, %28 ]
  call void @llvm.lifetime.end.p0(i64 4, ptr nonnull %8) #4
  call void @llvm.lifetime.end.p0(i64 280, ptr nonnull %7) #4
  ret i32 %.0
}